target datalayout = "e-m:e-p270:32:32-p271:32:32-p272:64:64-i64:64-i128:128-f80:128-n8:16:32:64-S128"
target triple = "x86_64-pc-linux-gnu"

%struct.extstore_conf_file = type { i32, ptr, i32, i64, i32, i32, ptr }

@stderr = external global ptr, align 8
@.str.35 = private unnamed_addr constant [2 x i8] c":\00", align 1
@.str.36 = private unnamed_addr constant [73 x i8] c"must supply size to ext_path, ie: ext_path=/f/e:64m (M|G|T|P supported)\0A\00", align 1
@.str.37 = private unnamed_addr constant [45 x i8] c"supplied ext_path has zero size, cannot use\0A\00", align 1
@.str.38 = private unnamed_addr constant [8 x i8] c"compact\00", align 1
@.str.39 = private unnamed_addr constant [7 x i8] c"lowttl\00", align 1
@.str.40 = private unnamed_addr constant [8 x i8] c"chunked\00", align 1
@.str.41 = private unnamed_addr constant [8 x i8] c"default\00", align 1
@.str.42 = private unnamed_addr constant [12 x i8] c"coldcompact\00", align 1
@.str.43 = private unnamed_addr constant [4 x i8] c"old\00", align 1
@.str.44 = private unnamed_addr constant [29 x i8] c"Unknown extstore bucket: %s\0A\00", align 1

; Function Attrs: inlinehint nounwind willreturn memory(read) uwtable
define available_externally i32 @atoi(ptr noundef nonnull %0) #9 {
  %2 = alloca ptr, align 8
  store ptr %0, ptr %2, align 8, !tbaa !169
  %3 = load ptr, ptr %2, align 8, !tbaa !169
  %4 = call i64 @strtol(ptr noundef %3, ptr noundef null, i32 noundef 10) #13
  %5 = trunc i64 %4 to i32
  ret i32 %5
}

; Function Attrs: nounwind uwtable
define dso_local ptr @storage_conf_parse(ptr noundef %0, i32 noundef %1) #0 {
  %3 = alloca ptr, align 8
  %4 = alloca ptr, align 8
  %5 = alloca i32, align 4
  %6 = alloca ptr, align 8
  %7 = alloca ptr, align 8
  %8 = alloca ptr, align 8
  %9 = alloca i8, align 1
  %10 = alloca i64, align 8
  %11 = alloca i32, align 4
  %12 = alloca i32, align 4
  %13 = alloca i32, align 4
  %14 = alloca i32, align 4
  store ptr %0, ptr %4, align 8, !tbaa !169
  store i32 %1, ptr %5, align 4, !tbaa !17
  call void @llvm.lifetime.start.p0(i64 8, ptr %6) #13
  store ptr null, ptr %6, align 8, !tbaa !189
  call void @llvm.lifetime.start.p0(i64 8, ptr %7) #13
  store ptr null, ptr %7, align 8, !tbaa !169
  call void @llvm.lifetime.start.p0(i64 8, ptr %8) #13
  %15 = load ptr, ptr %4, align 8, !tbaa !169
  %16 = call ptr @strtok_r(ptr noundef %15, ptr noundef @.str.35, ptr noundef %7) #13
  store ptr %16, ptr %8, align 8, !tbaa !169
  call void @llvm.lifetime.start.p0(i64 1, ptr %9) #13
  store i8 0, ptr %9, align 1, !tbaa !10
  call void @llvm.lifetime.start.p0(i64 8, ptr %10) #13
  store i64 0, ptr %10, align 8, !tbaa !75
  call void @llvm.lifetime.start.p0(i64 4, ptr %11) #13
  store i32 0, ptr %11, align 4, !tbaa !17
  %17 = load ptr, ptr %8, align 8, !tbaa !169
  %18 = icmp eq ptr %17, null
  br i1 %18, label %19, label %20

19:                                               ; preds = %2
  br label %148

20:                                               ; preds = %2
  %21 = call noalias ptr @calloc(i64 noundef 1, i64 noundef 48) #14
  store ptr %21, ptr %6, align 8, !tbaa !189
  %22 = load ptr, ptr %8, align 8, !tbaa !169
  %23 = call noalias ptr @strdup(ptr noundef %22) #13
  %24 = load ptr, ptr %6, align 8, !tbaa !189
  %25 = getelementptr inbounds nuw %struct.extstore_conf_file, ptr %24, i32 0, i32 1
  store ptr %23, ptr %25, align 8, !tbaa !191
  %26 = call ptr @strtok_r(ptr noundef null, ptr noundef @.str.35, ptr noundef %7) #13
  store ptr %26, ptr %8, align 8, !tbaa !169
  %27 = load ptr, ptr %8, align 8, !tbaa !169
  %28 = icmp eq ptr %27, null
  br i1 %28, label %29, label %32

29:                                               ; preds = %20
  %30 = load ptr, ptr @stderr, align 8, !tbaa !159
  %31 = call i32 (ptr, ptr, ...) @fprintf(ptr noundef %30, ptr noundef @.str.36) #13
  br label %148

32:                                               ; preds = %20
  call void @llvm.lifetime.start.p0(i64 4, ptr %12) #13
  %33 = call ptr @__ctype_tolower_loc() #18
  %34 = load ptr, ptr %33, align 8, !tbaa !193
  %35 = load ptr, ptr %8, align 8, !tbaa !169
  %36 = load ptr, ptr %8, align 8, !tbaa !169
  %37 = call i64 @strlen(ptr noundef %36) #16
  %38 = sub i64 %37, 1
  %39 = getelementptr inbounds nuw i8, ptr %35, i64 %38
  %40 = load i8, ptr %39, align 1, !tbaa !10
  %41 = sext i8 %40 to i32
  %42 = sext i32 %41 to i64
  %43 = getelementptr inbounds i32, ptr %34, i64 %42
  %44 = load i32, ptr %43, align 4, !tbaa !17
  store i32 %44, ptr %12, align 4, !tbaa !17
  %45 = load i32, ptr %12, align 4, !tbaa !17
  store i32 %45, ptr %13, align 4, !tbaa !17
  call void @llvm.lifetime.end.p0(i64 4, ptr %12) #13
  %46 = load i32, ptr %13, align 4, !tbaa !17
  %47 = trunc i32 %46 to i8
  store i8 %47, ptr %9, align 1, !tbaa !10
  %48 = load ptr, ptr %8, align 8, !tbaa !169
  %49 = load ptr, ptr %8, align 8, !tbaa !169
  %50 = call i64 @strlen(ptr noundef %49) #16
  %51 = sub i64 %50, 1
  %52 = getelementptr inbounds nuw i8, ptr %48, i64 %51
  store i8 0, ptr %52, align 1, !tbaa !10
  %53 = load i8, ptr %9, align 1, !tbaa !10
  %54 = sext i8 %53 to i32
  switch i32 %54, label %63 [
    i32 109, label %55
    i32 103, label %56
    i32 116, label %57
    i32 112, label %60
  ]

55:                                               ; preds = %32
  store i64 1048576, ptr %10, align 8, !tbaa !75
  br label %66

56:                                               ; preds = %32
  store i64 1073741824, ptr %10, align 8, !tbaa !75
  br label %66

57:                                               ; preds = %32
  store i64 1048576, ptr %10, align 8, !tbaa !75
  %58 = load i64, ptr %10, align 8, !tbaa !75
  %59 = mul i64 %58, 1048576
  store i64 %59, ptr %10, align 8, !tbaa !75
  br label %66

60:                                               ; preds = %32
  store i64 1048576, ptr %10, align 8, !tbaa !75
  %61 = load i64, ptr %10, align 8, !tbaa !75
  %62 = mul i64 %61, 1073741824
  store i64 %62, ptr %10, align 8, !tbaa !75
  br label %66

63:                                               ; preds = %32
  %64 = load ptr, ptr @stderr, align 8, !tbaa !159
  %65 = call i32 (ptr, ptr, ...) @fprintf(ptr noundef %64, ptr noundef @.str.36) #13
  br label %148

66:                                               ; preds = %60, %57, %56, %55
  %67 = load ptr, ptr %8, align 8, !tbaa !169
  %68 = call i32 @atoi(ptr noundef %67) #16
  store i32 %68, ptr %11, align 4, !tbaa !17
  %69 = load i32, ptr %11, align 4, !tbaa !17
  %70 = sext i32 %69 to i64
  %71 = load i64, ptr %10, align 8, !tbaa !75
  %72 = mul i64 %71, %70
  store i64 %72, ptr %10, align 8, !tbaa !75
  %73 = load i64, ptr %10, align 8, !tbaa !75
  %74 = load i32, ptr %5, align 4, !tbaa !17
  %75 = zext i32 %74 to i64
  %76 = udiv i64 %73, %75
  %77 = trunc i64 %76 to i32
  %78 = load ptr, ptr %6, align 8, !tbaa !189
  %79 = getelementptr inbounds nuw %struct.extstore_conf_file, ptr %78, i32 0, i32 0
  store i32 %77, ptr %79, align 8, !tbaa !195
  %80 = load ptr, ptr %6, align 8, !tbaa !189
  %81 = getelementptr inbounds nuw %struct.extstore_conf_file, ptr %80, i32 0, i32 0
  %82 = load i32, ptr %81, align 8, !tbaa !195
  %83 = icmp eq i32 %82, 0
  br i1 %83, label %84, label %87

84:                                               ; preds = %66
  %85 = load ptr, ptr @stderr, align 8, !tbaa !159
  %86 = call i32 (ptr, ptr, ...) @fprintf(ptr noundef %85, ptr noundef @.str.37) #13
  br label %148

87:                                               ; preds = %66
  %88 = call ptr @strtok_r(ptr noundef null, ptr noundef @.str.35, ptr noundef %7) #13
  store ptr %88, ptr %8, align 8, !tbaa !169
  %89 = load ptr, ptr %8, align 8, !tbaa !169
  %90 = icmp ne ptr %89, null
  br i1 %90, label %91, label %143

91:                                               ; preds = %87
  %92 = load ptr, ptr %8, align 8, !tbaa !169
  %93 = call i32 @strcmp(ptr noundef %92, ptr noundef @.str.38) #16
  %94 = icmp eq i32 %93, 0
  br i1 %94, label %95, label %98

95:                                               ; preds = %91
  %96 = load ptr, ptr %6, align 8, !tbaa !189
  %97 = getelementptr inbounds nuw %struct.extstore_conf_file, ptr %96, i32 0, i32 5
  store i32 1, ptr %97, align 4, !tbaa !196
  br label %142

98:                                               ; preds = %91
  %99 = load ptr, ptr %8, align 8, !tbaa !169
  %100 = call i32 @strcmp(ptr noundef %99, ptr noundef @.str.39) #16
  %101 = icmp eq i32 %100, 0
  br i1 %101, label %102, label %105

102:                                              ; preds = %98
  %103 = load ptr, ptr %6, align 8, !tbaa !189
  %104 = getelementptr inbounds nuw %struct.extstore_conf_file, ptr %103, i32 0, i32 5
  store i32 3, ptr %104, align 4, !tbaa !196
  br label %141

105:                                              ; preds = %98
  %106 = load ptr, ptr %8, align 8, !tbaa !169
  %107 = call i32 @strcmp(ptr noundef %106, ptr noundef @.str.40) #16
  %108 = icmp eq i32 %107, 0
  br i1 %108, label %109, label %112

109:                                              ; preds = %105
  %110 = load ptr, ptr %6, align 8, !tbaa !189
  %111 = getelementptr inbounds nuw %struct.extstore_conf_file, ptr %110, i32 0, i32 5
  store i32 2, ptr %111, align 4, !tbaa !196
  br label %140

112:                                              ; preds = %105
  %113 = load ptr, ptr %8, align 8, !tbaa !169
  %114 = call i32 @strcmp(ptr noundef %113, ptr noundef @.str.41) #16
  %115 = icmp eq i32 %114, 0
  br i1 %115, label %116, label %119

116:                                              ; preds = %112
  %117 = load ptr, ptr %6, align 8, !tbaa !189
  %118 = getelementptr inbounds nuw %struct.extstore_conf_file, ptr %117, i32 0, i32 5
  store i32 0, ptr %118, align 4, !tbaa !196
  br label %139

119:                                              ; preds = %112
  %120 = load ptr, ptr %8, align 8, !tbaa !169
  %121 = call i32 @strcmp(ptr noundef %120, ptr noundef @.str.42) #16
  %122 = icmp eq i32 %121, 0
  br i1 %122, label %123, label %126

123:                                              ; preds = %119
  %124 = load ptr, ptr %6, align 8, !tbaa !189
  %125 = getelementptr inbounds nuw %struct.extstore_conf_file, ptr %124, i32 0, i32 5
  store i32 4, ptr %125, align 4, !tbaa !196
  br label %138

126:                                              ; preds = %119
  %127 = load ptr, ptr %8, align 8, !tbaa !169
  %128 = call i32 @strcmp(ptr noundef %127, ptr noundef @.str.43) #16
  %129 = icmp eq i32 %128, 0
  br i1 %129, label %130, label %133

130:                                              ; preds = %126
  %131 = load ptr, ptr %6, align 8, !tbaa !189
  %132 = getelementptr inbounds nuw %struct.extstore_conf_file, ptr %131, i32 0, i32 5
  store i32 5, ptr %132, align 4, !tbaa !196
  br label %137

133:                                              ; preds = %126
  %134 = load ptr, ptr @stderr, align 8, !tbaa !159
  %135 = load ptr, ptr %8, align 8, !tbaa !169
  %136 = call i32 (ptr, ptr, ...) @fprintf(ptr noundef %134, ptr noundef @.str.44, ptr noundef %135) #13
  br label %148

137:                                              ; preds = %130
  br label %138

138:                                              ; preds = %137, %123
  br label %139

139:                                              ; preds = %138, %116
  br label %140

140:                                              ; preds = %139, %109
  br label %141

141:                                              ; preds = %140, %102
  br label %142

142:                                              ; preds = %141, %95
  br label %146

143:                                              ; preds = %87
  %144 = load ptr, ptr %6, align 8, !tbaa !189
  %145 = getelementptr inbounds nuw %struct.extstore_conf_file, ptr %144, i32 0, i32 5
  store i32 0, ptr %145, align 4, !tbaa !196
  br label %146

146:                                              ; preds = %143, %142
  %147 = load ptr, ptr %6, align 8, !tbaa !189
  store ptr %147, ptr %3, align 8
  store i32 1, ptr %14, align 4
  br label %163

148:                                              ; preds = %133, %84, %63, %29, %19
  %149 = load ptr, ptr %6, align 8, !tbaa !189
  %150 = icmp ne ptr %149, null
  br i1 %150, label %151, label %162

151:                                              ; preds = %148
  %152 = load ptr, ptr %6, align 8, !tbaa !189
  %153 = getelementptr inbounds nuw %struct.extstore_conf_file, ptr %152, i32 0, i32 1
  %154 = load ptr, ptr %153, align 8, !tbaa !191
  %155 = icmp ne ptr %154, null
  br i1 %155, label %156, label %160

156:                                              ; preds = %151
  %157 = load ptr, ptr %6, align 8, !tbaa !189
  %158 = getelementptr inbounds nuw %struct.extstore_conf_file, ptr %157, i32 0, i32 1
  %159 = load ptr, ptr %158, align 8, !tbaa !191
  call void @free(ptr noundef %159) #13
  br label %160

160:                                              ; preds = %156, %151
  %161 = load ptr, ptr %6, align 8, !tbaa !189
  call void @free(ptr noundef %161) #13
  br label %162

162:                                              ; preds = %160, %148
  store ptr null, ptr %3, align 8
  store i32 1, ptr %14, align 4
  br label %163

163:                                              ; preds = %162, %146
  call void @llvm.lifetime.end.p0(i64 4, ptr %11) #13
  call void @llvm.lifetime.end.p0(i64 8, ptr %10) #13
  call void @llvm.lifetime.end.p0(i64 1, ptr %9) #13
  call void @llvm.lifetime.end.p0(i64 8, ptr %8) #13
  call void @llvm.lifetime.end.p0(i64 8, ptr %7) #13
  call void @llvm.lifetime.end.p0(i64 8, ptr %6) #13
  %164 = load ptr, ptr %3, align 8
  ret ptr %164
}