; Function Attrs: nounwind uwtable
define dso_local noalias noundef ptr @storage_conf_parse(ptr noundef %0, i32 noundef %1) local_unnamed_addr #0 {
  %3 = alloca ptr, align 8
  call void @llvm.lifetime.start.p0(i64 8, ptr nonnull %3) #21
  store ptr null, ptr %3, align 8, !tbaa !207
  %4 = call ptr @strtok_r(ptr noundef %0, ptr noundef nonnull @.str.35, ptr noundef nonnull %3) #21
  %5 = icmp eq ptr %4, null
  br i1 %5, label %79, label %6

6:                                                ; preds = %2
  %7 = call noalias dereferenceable_or_null(48) ptr @calloc(i64 noundef 1, i64 noundef 48) #22
  %8 = call noalias ptr @strdup(ptr noundef nonnull %4) #21
  %9 = getelementptr inbounds nuw i8, ptr %7, i64 8
  store ptr %8, ptr %9, align 8, !tbaa !208
  %10 = call ptr @strtok_r(ptr noundef null, ptr noundef nonnull @.str.35, ptr noundef nonnull %3) #21
  %11 = icmp eq ptr %10, null
  br i1 %11, label %12, label %15

12:                                               ; preds = %6
  %13 = load ptr, ptr @stderr, align 8, !tbaa !156
  %14 = call i64 @fwrite(ptr nonnull @.str.36, i64 72, i64 1, ptr %13) #25
  br label %76

15:                                               ; preds = %6
  %16 = tail call ptr @__ctype_tolower_loc() #27
  %17 = load ptr, ptr %16, align 8, !tbaa !211
  %18 = call i64 @strlen(ptr noundef nonnull dereferenceable(1) %10) #28
  %19 = getelementptr i8, ptr %10, i64 %18
  %20 = getelementptr i8, ptr %19, i64 -1
  %21 = load i8, ptr %20, align 1, !tbaa !4
  %22 = sext i8 %21 to i64
  %23 = getelementptr inbounds i32, ptr %17, i64 %22
  %24 = load i32, ptr %23, align 4, !tbaa !13
  store i8 0, ptr %20, align 1, !tbaa !4
  %sext = shl i32 %24, 24
  %25 = ashr exact i32 %sext, 24
  switch i32 %25, label %29 [
    i32 109, label %32
    i32 103, label %26
    i32 116, label %27
    i32 112, label %28
  ]

26:                                               ; preds = %15
  br label %32

27:                                               ; preds = %15
  br label %32

28:                                               ; preds = %15
  br label %32

29:                                               ; preds = %15
  %30 = load ptr, ptr @stderr, align 8, !tbaa !156
  %31 = call i64 @fwrite(ptr nonnull @.str.36, i64 72, i64 1, ptr %30) #25
  br label %76

32:                                               ; preds = %15, %28, %27, %26
  %.042 = phi i64 [ 1125899906842624, %28 ], [ 1099511627776, %27 ], [ 1073741824, %26 ], [ 1048576, %15 ]
  %33 = call i64 @strtol(ptr noundef nonnull captures(none) %10, ptr noundef null, i32 noundef 10) #21
  %sext52 = shl i64 %33, 32
  %34 = ashr exact i64 %sext52, 32
  %35 = mul i64 %34, %.042
  %36 = zext i32 %1 to i64
  %37 = udiv i64 %35, %36
  %38 = trunc i64 %37 to i32
  store i32 %38, ptr %7, align 8, !tbaa !213
  %39 = icmp eq i32 %38, 0
  br i1 %39, label %40, label %43

40:                                               ; preds = %32
  %41 = load ptr, ptr @stderr, align 8, !tbaa !156
  %42 = call i64 @fwrite(ptr nonnull @.str.37, i64 44, i64 1, ptr %41) #25
  br label %76

43:                                               ; preds = %32
  %44 = call ptr @strtok_r(ptr noundef null, ptr noundef nonnull @.str.35, ptr noundef nonnull %3) #21
  %.not = icmp eq ptr %44, null
  br i1 %.not, label %79, label %45

45:                                               ; preds = %43
  %46 = call i32 @strcmp(ptr noundef nonnull dereferenceable(1) %44, ptr noundef nonnull dereferenceable(8) @.str.38) #28
  %47 = icmp eq i32 %46, 0
  br i1 %47, label %48, label %50

48:                                               ; preds = %45
  %49 = getelementptr inbounds nuw i8, ptr %7, i64 36
  store i32 1, ptr %49, align 4, !tbaa !214
  br label %79

50:                                               ; preds = %45
  %51 = call i32 @strcmp(ptr noundef nonnull dereferenceable(1) %44, ptr noundef nonnull dereferenceable(7) @.str.39) #28
  %52 = icmp eq i32 %51, 0
  br i1 %52, label %53, label %55

53:                                               ; preds = %50
  %54 = getelementptr inbounds nuw i8, ptr %7, i64 36
  store i32 3, ptr %54, align 4, !tbaa !214
  br label %79

55:                                               ; preds = %50
  %56 = call i32 @strcmp(ptr noundef nonnull dereferenceable(1) %44, ptr noundef nonnull dereferenceable(8) @.str.40) #28
  %57 = icmp eq i32 %56, 0
  br i1 %57, label %58, label %60

58:                                               ; preds = %55
  %59 = getelementptr inbounds nuw i8, ptr %7, i64 36
  store i32 2, ptr %59, align 4, !tbaa !214
  br label %79

60:                                               ; preds = %55
  %61 = call i32 @strcmp(ptr noundef nonnull dereferenceable(1) %44, ptr noundef nonnull dereferenceable(8) @.str.41) #28
  %62 = icmp eq i32 %61, 0
  br i1 %62, label %79, label %63

63:                                               ; preds = %60
  %64 = call i32 @strcmp(ptr noundef nonnull dereferenceable(1) %44, ptr noundef nonnull dereferenceable(12) @.str.42) #28
  %65 = icmp eq i32 %64, 0
  br i1 %65, label %66, label %68

66:                                               ; preds = %63
  %67 = getelementptr inbounds nuw i8, ptr %7, i64 36
  store i32 4, ptr %67, align 4, !tbaa !214
  br label %79

68:                                               ; preds = %63
  %69 = call i32 @strcmp(ptr noundef nonnull dereferenceable(1) %44, ptr noundef nonnull dereferenceable(4) @.str.43) #28
  %70 = icmp eq i32 %69, 0
  br i1 %70, label %71, label %73

71:                                               ; preds = %68
  %72 = getelementptr inbounds nuw i8, ptr %7, i64 36
  store i32 5, ptr %72, align 4, !tbaa !214
  br label %79

73:                                               ; preds = %68
  %74 = load ptr, ptr @stderr, align 8, !tbaa !156
  %75 = call i32 (ptr, ptr, ...) @fprintf(ptr noundef %74, ptr noundef nonnull @.str.44, ptr noundef nonnull %44) #24
  br label %76

76:                                               ; preds = %12, %29, %40, %73
  %.not48 = icmp eq ptr %8, null
  br i1 %.not48, label %78, label %77

77:                                               ; preds = %76
  call void @free(ptr noundef nonnull %8) #21
  br label %78

78:                                               ; preds = %77, %76
  call void @free(ptr noundef nonnull %7) #21
  br label %79

79:                                               ; preds = %43, %60, %2, %78, %53, %71, %66, %58, %48
  %.0 = phi ptr [ %7, %48 ], [ %7, %58 ], [ %7, %66 ], [ %7, %71 ], [ %7, %53 ], [ null, %78 ], [ null, %2 ], [ %7, %60 ], [ %7, %43 ]
  call void @llvm.lifetime.end.p0(i64 8, ptr nonnull %3) #21
  ret ptr %.0
}